(lp0
(dp1
Vdomain
p2
Vwww.linkedin.com
p3
sVsecure
p4
I00
sVvalue
p5
V"v=1&G"
p6
sVexpiry
p7
F1557391610.081774
sVpath
p8
V/
p9
sVhttpOnly
p10
I00
sVname
p11
Vvisit
p12
sa(dp13
Vdomain
p14
V.www.linkedin.com
p15
sVname
p16
VJSESSIONID
p17
sVvalue
p18
V"ajax:4744637680779780222"
p19
sVpath
p20
g9
sVhttpOnly
p21
I00
sVsecure
p22
I00
sa(dp23
Vdomain
p24
V.linkedin.com
p25
sVsecure
p26
I00
sVvalue
p27
V"b=SGST07:g=2:u=1:i=1494319609:t=1494406009:s=AQH-yyov5hgvIhCt0h4NvfIYMOngG_sj"
p28
sVexpiry
p29
F1494406008.515578
sVpath
p30
g9
sVhttpOnly
p31
I00
sVname
p32
Vlidc
p33
sa(dp34
Vdomain
p35
Vwww.linkedin.com
p36
sVsecure
p37
I00
sVvalue
p38
V"GST:9wWI8BwSH_Fus-X2h_WIwtwF4vnpPuCAIGvI8NDW-hnFGBXL672zp0:1494319612:08927053e5e2d4531be86cc497c47d0d25256238"
p39
sVexpiry
p40
F1494321409.737296
sVpath
p41
g9
sVhttpOnly
p42
I00
sVname
p43
Vleo_auth_token
p44
sa(dp45
Vdomain
p46
V.linkedin.com
p47
sVsecure
p48
I00
sVvalue
p49
V"v=2&0dcc387a-539d-45d4-8fec-77ab9596ecd9"
p50
sVexpiry
p51
F1557433460.515473
sVpath
p52
g9
sVhttpOnly
p53
I00
sVname
p54
Vbcookie
p55
sa(dp56
Vdomain
p57
V.www.linkedin.com
p58
sVsecure
p59
I01
sVvalue
p60
V"v=1&2017050908464940e5bce4-f629-4719-8793-55d77bc36320AQE8QbbinCMLFS3u9ls8NcWFr3xP2b8m"
p61
sVexpiry
p62
F1557433460.515523
sVpath
p63
g9
sVhttpOnly
p64
I01
sVname
p65
Vbscookie
p66
sa(dp67
Vdomain
p68
V.linkedin.com
p69
sVsecure
p70
I00
sVvalue
p71
VGA1.2.1994142679.1494319610
p72
sVexpiry
p73
I1557391609
sVpath
p74
g9
sVhttpOnly
p75
I00
sVname
p76
V_ga
p77
sa(dp78
Vdomain
p79
V.linkedin.com
p80
sVsecure
p81
I00
sVvalue
p82
V1
p83
sVexpiry
p84
I1494320209
sVpath
p85
g9
sVhttpOnly
p86
I00
sVname
p87
V_gat
p88
sa(dp89
Vdomain
p90
V.linkedin.com
p91
sVname
p92
Vlang
p93
sVvalue
p94
V"v=2&lang=en-us"
p95
sVpath
p96
g9
sVhttpOnly
p97
I00
sVsecure
p98
I00
sa.